target datalayout = "e-m:e-p270:32:32-p271:32:32-p272:64:64-i64:64-i128:128-f80:128-n8:16:32:64-S128"
target triple = "x86_64-pc-linux-gnu"

@stderr = external global ptr, align 8
@.str = private unnamed_addr constant [42 x i8] c"OOM error in native tmp buffer allocation\00", align 1

; Function Attrs: nounwind uwtable
define hidden ptr @fromURIPath(ptr noundef %0) #0 {
  %2 = alloca ptr, align 8
  %3 = alloca ptr, align 8
  %4 = alloca i32, align 4
  %5 = alloca ptr, align 8
  store ptr %0, ptr %3, align 8
  %6 = load ptr, ptr %3, align 8
  %7 = call i64 @strlen(ptr noundef %6) #5
  %8 = trunc i64 %7 to i32
  store i32 %8, ptr %4, align 4
  %9 = load i32, ptr %4, align 4
  %10 = icmp sgt i32 %9, 1
  br i1 %10, label %11, label %41

11:                                               ; preds = %1
  %12 = load ptr, ptr %3, align 8
  %13 = load i32, ptr %4, align 4
  %14 = sub nsw i32 %13, 1
  %15 = sext i32 %14 to i64
  %16 = getelementptr inbounds i8, ptr %12, i64 %15
  %17 = load i8, ptr %16, align 1
  %18 = sext i8 %17 to i32
  %19 = icmp eq i32 %18, 47
  br i1 %19, label %20, label %41

20:                                               ; preds = %11
  %21 = load i32, ptr %4, align 4
  %22 = sext i32 %21 to i64
  %23 = call noalias ptr @malloc(i64 noundef %22) #6
  store ptr %23, ptr %5, align 8
  %24 = load ptr, ptr %5, align 8
  %25 = icmp eq ptr %24, null
  br i1 %25, label %26, label %29

26:                                               ; preds = %20
  %27 = load ptr, ptr @stderr, align 8
  %28 = call i32 (ptr, ptr, ...) @fprintf(ptr noundef %27, ptr noundef @.str) #7
  store ptr null, ptr %2, align 8
  br label %43

29:                                               ; preds = %20
  %30 = load ptr, ptr %5, align 8
  %31 = load ptr, ptr %3, align 8
  %32 = load i32, ptr %4, align 4
  %33 = sub nsw i32 %32, 1
  %34 = sext i32 %33 to i64
  call void @llvm.memcpy.p0.p0.i64(ptr align 1 %30, ptr align 1 %31, i64 %34, i1 false)
  %35 = load ptr, ptr %5, align 8
  %36 = load i32, ptr %4, align 4
  %37 = sub nsw i32 %36, 1
  %38 = sext i32 %37 to i64
  %39 = getelementptr inbounds i8, ptr %35, i64 %38
  store i8 0, ptr %39, align 1
  %40 = load ptr, ptr %5, align 8
  store ptr %40, ptr %2, align 8
  br label %43

41:                                               ; preds = %11, %1
  %42 = load ptr, ptr %3, align 8
  store ptr %42, ptr %2, align 8
  br label %43

43:                                               ; preds = %41, %29, %26
  %44 = load ptr, ptr %2, align 8
  ret ptr %44
}