; Function Attrs: nofree nounwind uwtable
define hidden noundef ptr @fromURIPath(ptr noundef readonly %0) local_unnamed_addr #0 {
  %2 = tail call i64 @strlen(ptr noundef nonnull dereferenceable(1) %0) #7
  %3 = trunc i64 %2 to i32
  %4 = icmp sgt i32 %3, 1
  br i1 %4, label %5, label %20

5:                                                ; preds = %1
  %6 = add i64 %2, 4294967295
  %7 = and i64 %6, 4294967295
  %8 = getelementptr inbounds i8, ptr %0, i64 %7
  %9 = load i8, ptr %8, align 1
  %10 = icmp eq i8 %9, 47
  br i1 %10, label %11, label %20

11:                                               ; preds = %5
  %12 = and i64 %2, 2147483647
  %13 = tail call noalias ptr @malloc(i64 noundef %12) #8
  %14 = icmp eq ptr %13, null
  br i1 %14, label %15, label %18

15:                                               ; preds = %11
  %16 = load ptr, ptr @stderr, align 8
  %17 = tail call i64 @fwrite(ptr nonnull @.str, i64 41, i64 1, ptr %16) #9
  br label %20

18:                                               ; preds = %11
  tail call void @llvm.memcpy.p0.p0.i64(ptr nonnull align 1 %13, ptr nonnull align 1 %0, i64 %7, i1 false)
  %19 = getelementptr inbounds i8, ptr %13, i64 %7
  store i8 0, ptr %19, align 1
  br label %20

20:                                               ; preds = %1, %5, %18, %15
  %.0 = phi ptr [ null, %15 ], [ %13, %18 ], [ %0, %5 ], [ %0, %1 ]
  ret ptr %.0
}